; Function Attrs: mustprogress uwtable
define noundef zeroext i1 @_ZNK7rocksdb11MaxOperator17PartialMergeMultiERKNS_5SliceERKSt5dequeIS1_SaIS1_EEPNSt7__cxx1112basic_stringIcSt11char_traitsIcESaIcEEEPNS_6LoggerE(ptr nonnull readnone align 8 captures(none) %0, ptr nonnull readnone align 8 captures(none) %1, ptr noundef nonnull readonly align 8 captures(none) dereferenceable(80) %2, ptr noundef %3, ptr readnone captures(none) %4) unnamed_addr #3 align 2 personality ptr @__gxx_personality_v0 {
  %6 = getelementptr inbounds nuw i8, ptr %2, i64 16
  %7 = load ptr, ptr %6, align 8, !tbaa !29, !noalias !33
  %8 = getelementptr inbounds nuw i8, ptr %2, i64 48
  %9 = load ptr, ptr %8, align 8, !tbaa !29, !noalias !36
  %.not14 = icmp eq ptr %7, %9
  br i1 %.not14, label %._crit_edge, label %.lr.ph.preheader

.lr.ph.preheader:                                 ; preds = %5
  %10 = getelementptr inbounds nuw i8, ptr %2, i64 40
  %11 = load ptr, ptr %10, align 8, !tbaa !39, !noalias !33
  %12 = getelementptr inbounds nuw i8, ptr %2, i64 32
  %13 = load ptr, ptr %12, align 8, !tbaa !40, !noalias !33
  br label %.lr.ph

._crit_edge:                                      ; preds = %_ZNSt15_Deque_iteratorIN7rocksdb5SliceERKS1_PS2_EppEv.exit, %5
  %.sroa.09.0.lcssa = phi ptr [ @.str, %5 ], [ %spec.select, %_ZNSt15_Deque_iteratorIN7rocksdb5SliceERKS1_PS2_EppEv.exit ]
  %.sroa.611.0.lcssa = phi i64 [ 0, %5 ], [ %spec.select13, %_ZNSt15_Deque_iteratorIN7rocksdb5SliceERKS1_PS2_EppEv.exit ]
  %14 = getelementptr inbounds nuw i8, ptr %3, i64 8
  %15 = load i64, ptr %14, align 8, !tbaa !26
  %16 = tail call noundef nonnull align 8 dereferenceable(32) ptr @_ZNSt7__cxx1112basic_stringIcSt11char_traitsIcESaIcEE10_M_replaceEmmPKcm(ptr noundef nonnull align 8 dereferenceable(32) %3, i64 noundef 0, i64 noundef %15, ptr noundef %.sroa.09.0.lcssa, i64 noundef %.sroa.611.0.lcssa)
  ret i1 true

.lr.ph:                                           ; preds = %.lr.ph.preheader, %_ZNSt15_Deque_iteratorIN7rocksdb5SliceERKS1_PS2_EppEv.exit
  %.sroa.611.019 = phi i64 [ %spec.select13, %_ZNSt15_Deque_iteratorIN7rocksdb5SliceERKS1_PS2_EppEv.exit ], [ 0, %.lr.ph.preheader ]
  %.sroa.09.018 = phi ptr [ %spec.select, %_ZNSt15_Deque_iteratorIN7rocksdb5SliceERKS1_PS2_EppEv.exit ], [ @.str, %.lr.ph.preheader ]
  %.sroa.13.017 = phi ptr [ %.sroa.13.1, %_ZNSt15_Deque_iteratorIN7rocksdb5SliceERKS1_PS2_EppEv.exit ], [ %11, %.lr.ph.preheader ]
  %.sroa.10.016 = phi ptr [ %.sroa.10.1, %_ZNSt15_Deque_iteratorIN7rocksdb5SliceERKS1_PS2_EppEv.exit ], [ %13, %.lr.ph.preheader ]
  %.sroa.06.015 = phi ptr [ %.sroa.06.1, %_ZNSt15_Deque_iteratorIN7rocksdb5SliceERKS1_PS2_EppEv.exit ], [ %7, %.lr.ph.preheader ]
  %17 = getelementptr inbounds nuw i8, ptr %.sroa.06.015, i64 8
  %18 = load i64, ptr %17, align 8, !tbaa !20
  %..i = tail call i64 @llvm.umin.i64(i64 %.sroa.611.019, i64 %18)
  %19 = load ptr, ptr %.sroa.06.015, align 8, !tbaa !16
  %20 = tail call i32 @memcmp(ptr noundef %.sroa.09.018, ptr noundef %19, i64 noundef %..i) #15
  %.not.i = icmp eq i32 %20, 0
  %21 = icmp ult i64 %.sroa.611.019, %18
  %22 = icmp slt i32 %20, 0
  %23 = select i1 %.not.i, i1 %21, i1 %22
  %spec.select = select i1 %23, ptr %19, ptr %.sroa.09.018
  %spec.select13 = select i1 %23, i64 %18, i64 %.sroa.611.019
  %24 = getelementptr inbounds nuw i8, ptr %.sroa.06.015, i64 16
  %25 = icmp eq ptr %24, %.sroa.10.016
  br i1 %25, label %26, label %_ZNSt15_Deque_iteratorIN7rocksdb5SliceERKS1_PS2_EppEv.exit

26:                                               ; preds = %.lr.ph
  %27 = getelementptr inbounds nuw i8, ptr %.sroa.13.017, i64 8
  %28 = load ptr, ptr %27, align 8, !tbaa !24
  %29 = getelementptr inbounds nuw i8, ptr %28, i64 512
  br label %_ZNSt15_Deque_iteratorIN7rocksdb5SliceERKS1_PS2_EppEv.exit

_ZNSt15_Deque_iteratorIN7rocksdb5SliceERKS1_PS2_EppEv.exit: ; preds = %.lr.ph, %26
  %.sroa.06.1 = phi ptr [ %28, %26 ], [ %24, %.lr.ph ]
  %.sroa.10.1 = phi ptr [ %29, %26 ], [ %.sroa.10.016, %.lr.ph ]
  %.sroa.13.1 = phi ptr [ %27, %26 ], [ %.sroa.13.017, %.lr.ph ]
  %.not = icmp eq ptr %.sroa.06.1, %9
  br i1 %.not, label %._crit_edge, label %.lr.ph
}